target datalayout = "e-m:e-p270:32:32-p271:32:32-p272:64:64-i64:64-i128:128-f80:128-n8:16:32:64-S128"
target triple = "x86_64-pc-linux-gnu"

%struct.mbedtls_ecp_group = type { i32, %struct.mbedtls_mpi, %struct.mbedtls_mpi, %struct.mbedtls_mpi, %struct.mbedtls_ecp_point, %struct.mbedtls_mpi, i64, i64, i32, ptr, ptr, ptr, ptr, ptr, i64 }
%struct.mbedtls_ecp_point = type { %struct.mbedtls_mpi, %struct.mbedtls_mpi, %struct.mbedtls_mpi }
%struct.mbedtls_mpi = type { ptr, i16, i16 }

; Function Attrs: nounwind uwtable
define internal i32 @ecp_normalize_jac(ptr noundef %0, ptr noundef %1) #0 {
  %3 = alloca i32, align 4
  %4 = alloca ptr, align 8
  %5 = alloca ptr, align 8
  %6 = alloca i32, align 4
  %7 = alloca %struct.mbedtls_mpi, align 8
  store ptr %0, ptr %4, align 8, !tbaa !25
  store ptr %1, ptr %5, align 8, !tbaa !34
  %8 = load ptr, ptr %5, align 8, !tbaa !34
  %9 = getelementptr inbounds nuw %struct.mbedtls_ecp_point, ptr %8, i32 0, i32 2
  %10 = call i32 @mbedtls_mpi_cmp_int(ptr noundef %9, i64 noundef 0)
  %11 = icmp eq i32 %10, 0
  br i1 %11, label %12, label %13

12:                                               ; preds = %2
  store i32 0, ptr %3, align 4
  br label %80

13:                                               ; preds = %2
  call void @llvm.lifetime.start.p0(i64 4, ptr %6) #11
  store i32 -110, ptr %6, align 4, !tbaa !3
  call void @llvm.lifetime.start.p0(i64 16, ptr %7) #11
  call void @mbedtls_mpi_init(ptr noundef %7)
  br label %14

14:                                               ; preds = %13
  %15 = load ptr, ptr %5, align 8, !tbaa !34
  %16 = getelementptr inbounds nuw %struct.mbedtls_ecp_point, ptr %15, i32 0, i32 2
  %17 = load ptr, ptr %4, align 8, !tbaa !25
  %18 = getelementptr inbounds nuw %struct.mbedtls_ecp_group, ptr %17, i32 0, i32 1
  %19 = call i32 @mbedtls_mpi_inv_mod(ptr noundef %7, ptr noundef %16, ptr noundef %18)
  store i32 %19, ptr %6, align 4, !tbaa !3
  %20 = icmp ne i32 %19, 0
  br i1 %20, label %21, label %22

21:                                               ; preds = %14
  br label %78

22:                                               ; preds = %14
  br label %23

23:                                               ; preds = %22
  br label %24

24:                                               ; preds = %23
  br label %25

25:                                               ; preds = %24
  %26 = load ptr, ptr %4, align 8, !tbaa !25
  %27 = load ptr, ptr %5, align 8, !tbaa !34
  %28 = getelementptr inbounds nuw %struct.mbedtls_ecp_point, ptr %27, i32 0, i32 1
  %29 = load ptr, ptr %5, align 8, !tbaa !34
  %30 = getelementptr inbounds nuw %struct.mbedtls_ecp_point, ptr %29, i32 0, i32 1
  %31 = call i32 @mbedtls_mpi_mul_mod(ptr noundef %26, ptr noundef %28, ptr noundef %30, ptr noundef %7)
  store i32 %31, ptr %6, align 4, !tbaa !3
  %32 = icmp ne i32 %31, 0
  br i1 %32, label %33, label %34

33:                                               ; preds = %25
  br label %78

34:                                               ; preds = %25
  br label %35

35:                                               ; preds = %34
  br label %36

36:                                               ; preds = %35
  br label %37

37:                                               ; preds = %36
  %38 = load ptr, ptr %4, align 8, !tbaa !25
  %39 = call i32 @mbedtls_mpi_mul_mod(ptr noundef %38, ptr noundef %7, ptr noundef %7, ptr noundef %7)
  store i32 %39, ptr %6, align 4, !tbaa !3
  %40 = icmp ne i32 %39, 0
  br i1 %40, label %41, label %42

41:                                               ; preds = %37
  br label %78

42:                                               ; preds = %37
  br label %43

43:                                               ; preds = %42
  br label %44

44:                                               ; preds = %43
  br label %45

45:                                               ; preds = %44
  %46 = load ptr, ptr %4, align 8, !tbaa !25
  %47 = load ptr, ptr %5, align 8, !tbaa !34
  %48 = getelementptr inbounds nuw %struct.mbedtls_ecp_point, ptr %47, i32 0, i32 0
  %49 = load ptr, ptr %5, align 8, !tbaa !34
  %50 = getelementptr inbounds nuw %struct.mbedtls_ecp_point, ptr %49, i32 0, i32 0
  %51 = call i32 @mbedtls_mpi_mul_mod(ptr noundef %46, ptr noundef %48, ptr noundef %50, ptr noundef %7)
  store i32 %51, ptr %6, align 4, !tbaa !3
  %52 = icmp ne i32 %51, 0
  br i1 %52, label %53, label %54

53:                                               ; preds = %45
  br label %78

54:                                               ; preds = %45
  br label %55

55:                                               ; preds = %54
  br label %56

56:                                               ; preds = %55
  br label %57

57:                                               ; preds = %56
  %58 = load ptr, ptr %4, align 8, !tbaa !25
  %59 = load ptr, ptr %5, align 8, !tbaa !34
  %60 = getelementptr inbounds nuw %struct.mbedtls_ecp_point, ptr %59, i32 0, i32 1
  %61 = load ptr, ptr %5, align 8, !tbaa !34
  %62 = getelementptr inbounds nuw %struct.mbedtls_ecp_point, ptr %61, i32 0, i32 1
  %63 = call i32 @mbedtls_mpi_mul_mod(ptr noundef %58, ptr noundef %60, ptr noundef %62, ptr noundef %7)
  store i32 %63, ptr %6, align 4, !tbaa !3
  %64 = icmp ne i32 %63, 0
  br i1 %64, label %65, label %66

65:                                               ; preds = %57
  br label %78

66:                                               ; preds = %57
  br label %67

67:                                               ; preds = %66
  br label %68

68:                                               ; preds = %67
  br label %69

69:                                               ; preds = %68
  %70 = load ptr, ptr %5, align 8, !tbaa !34
  %71 = getelementptr inbounds nuw %struct.mbedtls_ecp_point, ptr %70, i32 0, i32 2
  %72 = call i32 @mbedtls_mpi_lset(ptr noundef %71, i64 noundef 1)
  store i32 %72, ptr %6, align 4, !tbaa !3
  %73 = icmp ne i32 %72, 0
  br i1 %73, label %74, label %75

74:                                               ; preds = %69
  br label %78

75:                                               ; preds = %69
  br label %76

76:                                               ; preds = %75
  br label %77

77:                                               ; preds = %76
  br label %78

78:                                               ; preds = %77, %74, %65, %53, %41, %33, %21
  call void @mbedtls_mpi_free(ptr noundef %7)
  %79 = load i32, ptr %6, align 4, !tbaa !3
  store i32 %79, ptr %3, align 4
  call void @llvm.lifetime.end.p0(i64 16, ptr %7) #11
  call void @llvm.lifetime.end.p0(i64 4, ptr %6) #11
  br label %80

80:                                               ; preds = %78, %12
  %81 = load i32, ptr %3, align 4
  ret i32 %81
}