; Function Attrs: nounwind uwtable
define internal fastcc i32 @ecp_normalize_jac(ptr noundef %0, ptr noundef %1) unnamed_addr #7 {
  %3 = alloca %struct.mbedtls_mpi, align 8
  %4 = getelementptr inbounds nuw i8, ptr %1, i64 32
  %5 = tail call i32 @mbedtls_mpi_cmp_int(ptr noundef nonnull %4, i64 noundef 0) #21
  %6 = icmp eq i32 %5, 0
  br i1 %6, label %22, label %7

7:                                                ; preds = %2
  call void @llvm.lifetime.start.p0(i64 16, ptr nonnull %3) #21
  call void @mbedtls_mpi_init(ptr noundef nonnull %3) #21
  %8 = getelementptr inbounds nuw i8, ptr %0, i64 8
  %9 = call i32 @mbedtls_mpi_inv_mod(ptr noundef nonnull %3, ptr noundef nonnull %4, ptr noundef nonnull %8) #21
  %.not = icmp eq i32 %9, 0
  br i1 %.not, label %10, label %21

10:                                               ; preds = %7
  %11 = getelementptr inbounds nuw i8, ptr %1, i64 16
  %12 = call fastcc i32 @mbedtls_mpi_mul_mod(ptr noundef nonnull %0, ptr noundef nonnull %11, ptr noundef nonnull %11, ptr noundef nonnull %3)
  %.not21 = icmp eq i32 %12, 0
  br i1 %.not21, label %13, label %21

13:                                               ; preds = %10
  %14 = call fastcc i32 @mbedtls_mpi_mul_mod(ptr noundef nonnull %0, ptr noundef nonnull %3, ptr noundef nonnull %3, ptr noundef nonnull %3)
  %.not22 = icmp eq i32 %14, 0
  br i1 %.not22, label %15, label %21

15:                                               ; preds = %13
  %16 = call fastcc i32 @mbedtls_mpi_mul_mod(ptr noundef nonnull %0, ptr noundef nonnull %1, ptr noundef nonnull %1, ptr noundef nonnull %3)
  %.not23 = icmp eq i32 %16, 0
  br i1 %.not23, label %17, label %21

17:                                               ; preds = %15
  %18 = call fastcc i32 @mbedtls_mpi_mul_mod(ptr noundef nonnull %0, ptr noundef nonnull %11, ptr noundef nonnull %11, ptr noundef nonnull %3)
  %.not24 = icmp eq i32 %18, 0
  br i1 %.not24, label %19, label %21

19:                                               ; preds = %17
  %20 = call i32 @mbedtls_mpi_lset(ptr noundef nonnull %4, i64 noundef 1) #21
  br label %21

21:                                               ; preds = %19, %17, %15, %13, %10, %7
  %.0 = phi i32 [ %9, %7 ], [ %12, %10 ], [ %14, %13 ], [ %16, %15 ], [ %18, %17 ], [ %20, %19 ]
  call void @mbedtls_mpi_free(ptr noundef nonnull %3) #21
  call void @llvm.lifetime.end.p0(i64 16, ptr nonnull %3) #21
  br label %22

22:                                               ; preds = %2, %21
  %.015 = phi i32 [ %.0, %21 ], [ 0, %2 ]
  ret i32 %.015
}